
naken_util - by Michael Kohn
                Joe Davisson
    Web: http://www.mikekohn.net/
  Email: mike@mikekohn.net

Version: January 20, 2020

Loaded hexfile STM8S105C6_bootloader_v1.2.hex from 0x6000 to 0x67ff
Type help for a list of commands.

Addr    Opcode Instruction                              Cycles
------- ------ ----------------------------------       ------
0x6000:  9b             sim                                      cycles=1
0x6001:  c6 80 00       ld A, $8000                              cycles=1
0x6004:  a1 82          cp A, #$82                               cycles=1
0x6006:  27 08          jreq $6010  (offset=8)                   cycles=1-2
0x6008:  a1 ac          cp A, #$ac                               cycles=1
0x600a:  27 04          jreq $6010  (offset=4)                   cycles=1-2
0x600c:  3f 95          clr $95                                  cycles=1
0x600e:  20 0e          jra $601e  (offset=14)                   cycles=2
0x6010:  a6 01          ld A, #$01                               cycles=1
0x6012:  b7 95          ld $95,A                                 cycles=1
0x6014:  ce 48 7e       ldw X, $487e                             cycles=2
0x6017:  a3 55 aa       cpw X, #$55aa                            cycles=2
0x601a:  27 02          jreq $601e  (offset=2)                   cycles=1-2
0x601c:  20 07          jra $6025  (offset=7)                    cycles=2
0x601e:  c6 48 00       ld A, $4800                              cycles=1
0x6021:  a1 aa          cp A, #$aa                               cycles=1
0x6023:  26 09          jrne $602e  (offset=9)                   cycles=1-2
0x6025:  5f             clrw X                                   cycles=1
0x6026:  4f             clr A                                    cycles=1
0x6027:  4b 28          push #$28                                cycles=1
0x6029:  86             pop CC                                   cycles=1
0x602a:  ac 00 80 00    jpf $8000                                cycles=2
0x602e:  ad 3d          callr $606d  (offset=61)                 cycles=4
0x6030:  72 10 50 c0    bset $50c0, #0                           cycles=1
0x6034:  4f             clr A                                    cycles=1
0x6035:  c7 50 c6       ld $50c6,A                               cycles=1
0x6038:  cd 60 7e       call $607e                               cycles=4
0x603b:  72 1c 50 12    bset $5012, #6                           cycles=1
0x603f:  3f 8e          clr $8e                                  cycles=1
0x6041:  a6 01          ld A, #$01                               cycles=1
0x6043:  b7 96          ld $96,A                                 cycles=1
0x6045:  cd 60 e5       call $60e5                               cycles=4
0x6048:  72 06 00 8e 04 btjt $8e, #3, $6051  (offset=4)          cycles=2-3
0x604d:  ac 00 80 00    jpf $8000                                cycles=2
0x6051:  35 56 50 62    mov $5062, #$56                          cycles=1
0x6055:  35 ae 50 62    mov $5062, #$ae                          cycles=1
0x6059:  35 ae 50 64    mov $5064, #$ae                          cycles=1
0x605d:  35 56 50 64    mov $5064, #$56                          cycles=1
0x6061:  a6 79          ld A, #$79                               cycles=1
0x6063:  cd 60 b1       call $60b1                               cycles=4
0x6066:  cd 61 c2       call $61c2                               cycles=4
0x6069:  92 ac 00 8a    jpf [$8a.e]                              cycles=6
0x606d:  35 55 50 e0    mov $50e0, #$55                          cycles=1
0x6071:  35 05 50 e1    mov $50e1, #$05                          cycles=1
0x6075:  35 aa 50 e0    mov $50e0, #$aa                          cycles=1
0x6079:  35 7f 50 d1    mov $50d1, #$7f                          cycles=1
0x607d:  81             ret                                      cycles=4
0x607e:  a6 42          ld A, #$42                               cycles=1
0x6080:  c7 52 01       ld $5201,A                               cycles=1
0x6083:  72 1f 50 0d    bres $500d, #7                           cycles=1
0x6087:  72 1e 50 0e    bset $500e, #7                           cycles=1
0x608b:  4f             clr A                                    cycles=1
0x608c:  c7 52 02       ld $5202,A                               cycles=1
0x608f:  a6 40          ld A, #$40                               cycles=1
0x6091:  c7 52 00       ld $5200,A                               cycles=1
0x6094:  81             ret                                      cycles=4
0x6095:  72 1d 50 12    bres $5012, #6                           cycles=1
0x6099:  72 16 52 45    bset $5245, #3                           cycles=1
0x609d:  72 14 52 45    bset $5245, #2                           cycles=1
0x60a1:  72 1a 52 49    bset $5249, #5                           cycles=1
0x60a5:  9d             nop                                      cycles=1
0x60a6:  b6 92          ld A, $92                                cycles=1
0x60a8:  c7 52 43       ld $5243,A                               cycles=1
0x60ab:  b6 91          ld A, $91                                cycles=1
0x60ad:  c7 52 42       ld $5242,A                               cycles=1
0x60b0:  81             ret                                      cycles=4
0x60b1:  b7 8d          ld $8d,A                                 cycles=1
0x60b3:  72 01 00 8e 16 btjf $8e, #0, $60ce  (offset=22)         cycles=2-3
0x60b8:  b6 8d          ld A, $8d                                cycles=1
0x60ba:  c7 52 04       ld $5204,A                               cycles=1
0x60bd:  ad ae          callr $606d  (offset=-82)                cycles=4
0x60bf:  72 03 52 03 f9 btjf $5203, #1, $60bd  (offset=-7)       cycles=2-3
0x60c4:  72 01 52 03 fb btjf $5203, #0, $60c4  (offset=-5)       cycles=2-3
0x60c9:  c6 52 04       ld A, $5204                              cycles=1
0x60cc:  20 16          jra $60e4  (offset=22)                   cycles=2
0x60ce:  c6 52 40       ld A, $5240                              cycles=1
0x60d1:  b6 8d          ld A, $8d                                cycles=1
0x60d3:  c7 52 41       ld $5241,A                               cycles=1
0x60d6:  72 0d 52 40 fb btjf $5240, #6, $60d6  (offset=-5)       cycles=2-3
0x60db:  9d             nop                                      cycles=1
0x60dc:  72 0b 52 40 fb btjf $5240, #5, $60dc  (offset=-5)       cycles=2-3
0x60e1:  c6 52 41       ld A, $5241                              cycles=1
0x60e4:  81             ret                                      cycles=4
0x60e5:  a6 08          ld A, #$08                               cycles=1
0x60e7:  c7 53 2a       ld $532a,A                               cycles=1
0x60ea:  72 10 53 20    bset $5320, #0                           cycles=1
0x60ee:  72 01 53 22 fb btjf $5322, #0, $60ee  (offset=-5)       cycles=2-3
0x60f3:  4f             clr A                                    cycles=1
0x60f4:  c7 53 22       ld $5322,A                               cycles=1
0x60f7:  72 10 53 20    bset $5320, #0                           cycles=1
0x60fb:  72 01 52 03 12 btjf $5203, #0, $6112  (offset=18)       cycles=2-3
0x6100:  72 0c 52 03 0d btjt $5203, #6, $6112  (offset=13)       cycles=2-3
0x6105:  c6 52 04       ld A, $5204                              cycles=1
0x6108:  a1 7f          cp A, #$7f                               cycles=1
0x610a:  26 06          jrne $6112  (offset=6)                   cycles=1-2
0x610c:  72 10 00 8e    bset $8e, #0                             cycles=1
0x6110:  20 58          jra $616a  (offset=88)                   cycles=2
0x6112:  72 0c 50 10 25 btjt $5010, #6, $613c  (offset=37)       cycles=2-3
0x6117:  72 01 00 96 20 btjf $96, #0, $613c  (offset=32)         cycles=2-3
0x611c:  ae 04 60       ldw X, #$460                             cycles=2
0x611f:  5a             decw X                                   cycles=1
0x6120:  27 18          jreq $613a  (offset=24)                  cycles=1-2
0x6122:  72 0d 50 10 f8 btjf $5010, #6, $611f  (offset=-8)       cycles=2-3
0x6127:  72 10 53 00    bset $5300, #0                           cycles=1
0x612b:  72 0c 50 10 fb btjt $5010, #6, $612b  (offset=-5)       cycles=2-3
0x6130:  ce 53 0a       ldw X, $530a                             cycles=2
0x6133:  72 14 00 8e    bset $8e, #2                             cycles=1
0x6137:  cc 61 6a       jp $616a                                 cycles=1
0x613a:  3f 96          clr $96                                  cycles=1
0x613c:  72 01 00 96 05 btjf $96, #0, $6146  (offset=5)          cycles=2-3
0x6141:  72 0d 50 10 d6 btjf $5010, #6, $611c  (offset=-42)      cycles=2-3
0x6146:  35 55 50 e0    mov $50e0, #$55                          cycles=1
0x614a:  35 05 50 e1    mov $50e1, #$05                          cycles=1
0x614e:  35 aa 50 e0    mov $50e0, #$aa                          cycles=1
0x6152:  35 7f 50 d1    mov $50d1, #$7f                          cycles=1
0x6156:  72 00 53 22 02 btjt $5322, #0, $615d  (offset=2)        cycles=2-3
0x615b:  20 9e          jra $60fb  (offset=-98)                  cycles=2
0x615d:  72 00 00 95 02 btjt $95, #0, $6164  (offset=2)          cycles=2-3
0x6162:  20 97          jra $60fb  (offset=-105)                 cycles=2
0x6164:  72 17 00 8e    bres $8e, #3                             cycles=1
0x6168:  20 28          jra $6192  (offset=40)                   cycles=2
0x616a:  72 16 00 8e    bset $8e, #3                             cycles=1
0x616e:  72 00 00 8e 1f btjt $8e, #0, $6192  (offset=31)         cycles=2-3
0x6173:  a3 00 c3       cpw X, #$c3                              cycles=2
0x6176:  25 05          jrc $617d  (offset=5)                    cycles=1-2
0x6178:  1c 00 04       addw X, #$4                              cycles=2
0x617b:  20 03          jra $6180  (offset=3)                    cycles=2
0x617d:  1c 00 06       addw X, #$6                              cycles=2
0x6180:  a6 07          ld A, #$07                               cycles=1
0x6182:  62             div X, A                                 cycles=2-17
0x6183:  a6 10          ld A, #$10                               cycles=1
0x6185:  62             div X, A                                 cycles=2-17
0x6186:  b7 92          ld $92,A                                 cycles=1
0x6188:  9f             ld A, XL                                 cycles=1
0x6189:  b7 91          ld $91,A                                 cycles=1
0x618b:  4f             clr A                                    cycles=1
0x618c:  c7 52 00       ld $5200,A                               cycles=1
0x618f:  cd 60 95       call $6095                               cycles=4
0x6192:  4f             clr A                                    cycles=1
0x6193:  c7 53 00       ld $5300,A                               cycles=1
0x6196:  c7 53 20       ld $5320,A                               cycles=1
0x6199:  c7 53 22       ld $5322,A                               cycles=1
0x619c:  c7 53 2a       ld $532a,A                               cycles=1
0x619f:  72 06 00 8e 1d btjt $8e, #3, $61c1  (offset=29)         cycles=2-3
0x61a4:  72 1f 50 0d    bres $500d, #7                           cycles=1
0x61a8:  72 1f 50 0e    bres $500e, #7                           cycles=1
0x61ac:  72 1d 50 12    bres $5012, #6                           cycles=1
0x61b0:  4f             clr A                                    cycles=1
0x61b1:  5f             clrw X                                   cycles=1
0x61b2:  c7 52 02       ld $5202,A                               cycles=1
0x61b5:  cf 52 00       ldw $5200,X                              cycles=2
0x61b8:  9d             nop                                      cycles=1
0x61b9:  35 18 50 c6    mov $50c6, #$18                          cycles=1
0x61bd:  35 7f 50 d1    mov $50d1, #$7f                          cycles=1
0x61c1:  81             ret                                      cycles=4
0x61c2:  ae 61 e5       ldw X, #$61e5                            cycles=2
0x61c5:  cd 60 6d       call $606d                               cycles=4
0x61c8:  72 00 00 8e 0a btjt $8e, #0, $61d7  (offset=10)         cycles=2-3
0x61cd:  72 0b 52 40 f3 btjf $5240, #5, $61c5  (offset=-13)      cycles=2-3
0x61d2:  c6 52 41       ld A, $5241                              cycles=1
0x61d5:  20 0d          jra $61e4  (offset=13)                   cycles=2
0x61d7:  72 01 52 03 e9 btjf $5203, #0, $61c5  (offset=-23)      cycles=2-3
0x61dc:  72 0c 52 03 39 btjt $5203, #6, $621a  (offset=57)       cycles=2-3
0x61e1:  c6 52 04       ld A, $5204                              cycles=1
0x61e4:  fc             jp (X)                                   cycles=1
0x61e5:  b7 82          ld $82,A                                 cycles=1
0x61e7:  ae 61 ed       ldw X, #$61ed                            cycles=2
0x61ea:  cc 61 c5       jp $61c5                                 cycles=1
0x61ed:  b7 83          ld $83,A                                 cycles=1
0x61ef:  b8 82          xor A, $82                               cycles=1
0x61f1:  a1 ff          cp A, #$ff                               cycles=1
0x61f3:  26 25          jrne $621a  (offset=37)                  cycles=1-2
0x61f5:  b6 82          ld A, $82                                cycles=1
0x61f7:  ae 62 22       ldw X, #$6222                            cycles=2
0x61fa:  a1 00          cp A, #$00                               cycles=1
0x61fc:  27 e6          jreq $61e4  (offset=-26)                 cycles=1-2
0x61fe:  ae 62 52       ldw X, #$6252                            cycles=2
0x6201:  a1 11          cp A, #$11                               cycles=1
0x6203:  27 df          jreq $61e4  (offset=-33)                 cycles=1-2
0x6205:  ae 63 29       ldw X, #$6329                            cycles=2
0x6208:  a1 21          cp A, #$21                               cycles=1
0x620a:  27 d8          jreq $61e4  (offset=-40)                 cycles=1-2
0x620c:  ae 63 41       ldw X, #$6341                            cycles=2
0x620f:  a1 31          cp A, #$31                               cycles=1
0x6211:  27 d1          jreq $61e4  (offset=-47)                 cycles=1-2
0x6213:  ae 62 8b       ldw X, #$628b                            cycles=2
0x6216:  a1 43          cp A, #$43                               cycles=1
0x6218:  27 ca          jreq $61e4  (offset=-54)                 cycles=1-2
0x621a:  a6 1f          ld A, #$1f                               cycles=1
0x621c:  cd 60 b1       call $60b1                               cycles=4
0x621f:  cc 61 c2       jp $61c2                                 cycles=1
0x6222:  a6 79          ld A, #$79                               cycles=1
0x6224:  cd 60 b1       call $60b1                               cycles=4
0x6227:  a6 05          ld A, #$05                               cycles=1
0x6229:  cd 60 b1       call $60b1                               cycles=4
0x622c:  a6 12          ld A, #$12                               cycles=1
0x622e:  cd 60 b1       call $60b1                               cycles=4
0x6231:  a6 00          ld A, #$00                               cycles=1
0x6233:  cd 60 b1       call $60b1                               cycles=4
0x6236:  a6 11          ld A, #$11                               cycles=1
0x6238:  cd 60 b1       call $60b1                               cycles=4
0x623b:  a6 21          ld A, #$21                               cycles=1
0x623d:  cd 60 b1       call $60b1                               cycles=4
0x6240:  a6 31          ld A, #$31                               cycles=1
0x6242:  cd 60 b1       call $60b1                               cycles=4
0x6245:  a6 43          ld A, #$43                               cycles=1
0x6247:  cd 60 b1       call $60b1                               cycles=4
0x624a:  a6 79          ld A, #$79                               cycles=1
0x624c:  cd 60 b1       call $60b1                               cycles=4
0x624f:  cc 61 c2       jp $61c2                                 cycles=1
0x6252:  a6 79          ld A, #$79                               cycles=1
0x6254:  cd 60 b1       call $60b1                               cycles=4
0x6257:  ae 63 d4       ldw X, #$63d4                            cycles=2
0x625a:  cc 61 c5       jp $61c5                                 cycles=1
0x625d:  b7 88          ld $88,A                                 cycles=1
0x625f:  ae 62 65       ldw X, #$6265                            cycles=2
0x6262:  cc 61 c5       jp $61c5                                 cycles=1
0x6265:  b7 89          ld $89,A                                 cycles=1
0x6267:  b8 88          xor A, $88                               cycles=1
0x6269:  a1 ff          cp A, #$ff                               cycles=1
0x626b:  26 18          jrne $6285  (offset=24)                  cycles=1-2
0x626d:  a6 79          ld A, #$79                               cycles=1
0x626f:  cd 60 b1       call $60b1                               cycles=4
0x6272:  5f             clrw X                                   cycles=1
0x6273:  cd 60 6d       call $606d                               cycles=4
0x6276:  92 af 00 8a    ldf A, ([$8a.e],X)                       cycles=4
0x627a:  cd 60 b1       call $60b1                               cycles=4
0x627d:  9f             ld A, XL                                 cycles=1
0x627e:  b1 88          cp A, $88                                cycles=1
0x6280:  27 06          jreq $6288  (offset=6)                   cycles=1-2
0x6282:  5c             incw X                                   cycles=1
0x6283:  20 ee          jra $6273  (offset=-18)                  cycles=2
0x6285:  cc 62 1a       jp $621a                                 cycles=1
0x6288:  cc 61 c2       jp $61c2                                 cycles=1
0x628b:  a6 79          ld A, #$79                               cycles=1
0x628d:  cd 60 b1       call $60b1                               cycles=4
0x6290:  ae 62 96       ldw X, #$6296                            cycles=2
0x6293:  cc 61 c5       jp $61c5                                 cycles=1
0x6296:  b7 88          ld $88,A                                 cycles=1
0x6298:  a1 ff          cp A, #$ff                               cycles=1
0x629a:  26 11          jrne $62ad  (offset=17)                  cycles=1-2
0x629c:  ae 62 a2       ldw X, #$62a2                            cycles=2
0x629f:  cc 61 c5       jp $61c5                                 cycles=1
0x62a2:  a1 00          cp A, #$00                               cycles=1
0x62a4:  26 35          jrne $62db  (offset=53)                  cycles=1-2
0x62a6:  72 18 00 8e    bset $8e, #4                             cycles=1
0x62aa:  cc 63 1a       jp $631a                                 cycles=1
0x62ad:  90 5f          clrw Y                                   cycles=1
0x62af:  a1 21          cp A, #$21                               cycles=1
0x62b1:  24 02          jrnc $62b5  (offset=2)                   cycles=1-2
0x62b3:  20 1c          jra $62d1  (offset=28)                   cycles=2
0x62b5:  ae 62 bb       ldw X, #$62bb                            cycles=2
0x62b8:  cc 61 c5       jp $61c5                                 cycles=1
0x62bb:  90 9f          ld A, YL                                 cycles=1
0x62bd:  b1 88          cp A, $88                                cycles=1
0x62bf:  27 08          jreq $62c9  (offset=8)                   cycles=1-2
0x62c1:  90 5c          incw Y                                   cycles=1
0x62c3:  ae 62 bb       ldw X, #$62bb                            cycles=2
0x62c6:  cc 61 c5       jp $61c5                                 cycles=1
0x62c9:  ae 62 cf       ldw X, #$62cf                            cycles=2
0x62cc:  cc 61 c5       jp $61c5                                 cycles=1
0x62cf:  20 0a          jra $62db  (offset=10)                   cycles=2
0x62d1:  b6 88          ld A, $88                                cycles=1
0x62d3:  b7 8f          ld $8f,A                                 cycles=1
0x62d5:  ae 62 de       ldw X, #$62de                            cycles=2
0x62d8:  cc 61 c5       jp $61c5                                 cycles=1
0x62db:  cc 62 1a       jp $621a                                 cycles=1
0x62de:  a1 21          cp A, #$21                               cycles=1
0x62e0:  24 02          jrnc $62e4  (offset=2)                   cycles=1-2
0x62e2:  20 04          jra $62e8  (offset=4)                    cycles=2
0x62e4:  72 1e 00 8e    bset $8e, #7                             cycles=1
0x62e8:  90 e7 00       ld ($00,Y),A                             cycles=1
0x62eb:  b8 8f          xor A, $8f                               cycles=1
0x62ed:  b7 8f          ld $8f,A                                 cycles=1
0x62ef:  90 9f          ld A, YL                                 cycles=1
0x62f1:  b1 88          cp A, $88                                cycles=1
0x62f3:  27 08          jreq $62fd  (offset=8)                   cycles=1-2
0x62f5:  90 5c          incw Y                                   cycles=1
0x62f7:  ae 62 de       ldw X, #$62de                            cycles=2
0x62fa:  cc 61 c5       jp $61c5                                 cycles=1
0x62fd:  ae 63 03       ldw X, #$6303                            cycles=2
0x6300:  cc 61 c5       jp $61c5                                 cycles=1
0x6303:  72 0f 00 8e 06 btjf $8e, #7, $630e  (offset=6)          cycles=2-3
0x6308:  72 1f 00 8e    bres $8e, #7                             cycles=1
0x630c:  20 cd          jra $62db  (offset=-51)                  cycles=2
0x630e:  72 19 00 8e    bres $8e, #4                             cycles=1
0x6312:  b7 89          ld $89,A                                 cycles=1
0x6314:  b8 8f          xor A, $8f                               cycles=1
0x6316:  27 02          jreq $631a  (offset=2)                   cycles=1-2
0x6318:  20 c1          jra $62db  (offset=-63)                  cycles=2
0x631a:  cd 00 a0       call $a0                                 cycles=4
0x631d:  b6 97          ld A, $97                                cycles=1
0x631f:  26 ba          jrne $62db  (offset=-70)                 cycles=1-2
0x6321:  a6 79          ld A, #$79                               cycles=1
0x6323:  cd 60 b1       call $60b1                               cycles=4
0x6326:  cc 61 c2       jp $61c2                                 cycles=1
0x6329:  a6 79          ld A, #$79                               cycles=1
0x632b:  cd 60 b1       call $60b1                               cycles=4
0x632e:  ae 63 d4       ldw X, #$63d4                            cycles=2
0x6331:  cc 61 c5       jp $61c5                                 cycles=1
0x6334:  5f             clrw X                                   cycles=1
0x6335:  4f             clr A                                    cycles=1
0x6336:  e7 a0          ld ($a0,X),A                             cycles=1
0x6338:  5c             incw X                                   cycles=1
0x6339:  a3 01 30       cpw X, #$130                             cycles=2
0x633c:  26 f8          jrne $6336  (offset=-8)                  cycles=1-2
0x633e:  cc 64 a8       jp $64a8                                 cycles=1
0x6341:  a6 79          ld A, #$79                               cycles=1
0x6343:  cd 60 b1       call $60b1                               cycles=4
0x6346:  ae 63 d4       ldw X, #$63d4                            cycles=2
0x6349:  cc 61 c5       jp $61c5                                 cycles=1
0x634c:  90 5f          clrw Y                                   cycles=1
0x634e:  b7 88          ld $88,A                                 cycles=1
0x6350:  2b 02          jrmi $6354  (offset=2)                   cycles=1-2
0x6352:  20 1c          jra $6370  (offset=28)                   cycles=2
0x6354:  ae 63 5a       ldw X, #$635a                            cycles=2
0x6357:  cc 61 c5       jp $61c5                                 cycles=1
0x635a:  90 9f          ld A, YL                                 cycles=1
0x635c:  b1 88          cp A, $88                                cycles=1
0x635e:  27 08          jreq $6368  (offset=8)                   cycles=1-2
0x6360:  90 5c          incw Y                                   cycles=1
0x6362:  ae 63 5a       ldw X, #$635a                            cycles=2
0x6365:  cc 61 c5       jp $61c5                                 cycles=1
0x6368:  ae 63 6e       ldw X, #$636e                            cycles=2
0x636b:  cc 61 c5       jp $61c5                                 cycles=1
0x636e:  20 06          jra $6376  (offset=6)                    cycles=2
0x6370:  ae 63 79       ldw X, #$6379                            cycles=2
0x6373:  cc 61 c5       jp $61c5                                 cycles=1
0x6376:  cc 62 1a       jp $621a                                 cycles=1
0x6379:  90 e7 00       ld ($00,Y),A                             cycles=1
0x637c:  90 9f          ld A, YL                                 cycles=1
0x637e:  b1 88          cp A, $88                                cycles=1
0x6380:  27 05          jreq $6387  (offset=5)                   cycles=1-2
0x6382:  90 5c          incw Y                                   cycles=1
0x6384:  cc 61 c5       jp $61c5                                 cycles=1
0x6387:  ae 63 8d       ldw X, #$638d                            cycles=2
0x638a:  cc 61 c5       jp $61c5                                 cycles=1
0x638d:  b7 89          ld $89,A                                 cycles=1
0x638f:  72 0b 00 8e 16 btjf $8e, #5, $63aa  (offset=22)         cycles=2-3
0x6394:  b6 88          ld A, $88                                cycles=1
0x6396:  a1 7f          cp A, #$7f                               cycles=1
0x6398:  2b 10          jrmi $63aa  (offset=16)                  cycles=1-2
0x639a:  b6 87          ld A, $87                                cycles=1
0x639c:  27 06          jreq $63a4  (offset=6)                   cycles=1-2
0x639e:  a1 80          cp A, #$80                               cycles=1
0x63a0:  27 02          jreq $63a4  (offset=2)                   cycles=1-2
0x63a2:  20 06          jra $63aa  (offset=6)                    cycles=2
0x63a4:  72 1c 00 8e    bset $8e, #6                             cycles=1
0x63a8:  20 04          jra $63ae  (offset=4)                    cycles=2
0x63aa:  72 1d 00 8e    bres $8e, #6                             cycles=1
0x63ae:  72 0b 00 8e 0a btjf $8e, #5, $63bd  (offset=10)         cycles=2-3
0x63b3:  cd 01 50       call $150                                cycles=4
0x63b6:  b6 98          ld A, $98                                cycles=1
0x63b8:  27 06          jreq $63c0  (offset=6)                   cycles=1-2
0x63ba:  cc 62 1a       jp $621a                                 cycles=1
0x63bd:  cd 64 a9       call $64a9                               cycles=4
0x63c0:  cd 64 bc       call $64bc                               cycles=4
0x63c3:  72 0f 00 8e f2 btjf $8e, #7, $63ba  (offset=-14)        cycles=2-3
0x63c8:  a6 79          ld A, #$79                               cycles=1
0x63ca:  cd 60 b1       call $60b1                               cycles=4
0x63cd:  72 1f 00 8e    bres $8e, #7                             cycles=1
0x63d1:  cc 61 c2       jp $61c2                                 cycles=1
0x63d4:  b7 84          ld $84,A                                 cycles=1
0x63d6:  b7 8f          ld $8f,A                                 cycles=1
0x63d8:  ae 63 de       ldw X, #$63de                            cycles=2
0x63db:  cc 61 c5       jp $61c5                                 cycles=1
0x63de:  b7 85          ld $85,A                                 cycles=1
0x63e0:  b7 8a          ld $8a,A                                 cycles=1
0x63e2:  b8 8f          xor A, $8f                               cycles=1
0x63e4:  b7 8f          ld $8f,A                                 cycles=1
0x63e6:  ae 63 ec       ldw X, #$63ec                            cycles=2
0x63e9:  cc 61 c5       jp $61c5                                 cycles=1
0x63ec:  b7 86          ld $86,A                                 cycles=1
0x63ee:  b7 8b          ld $8b,A                                 cycles=1
0x63f0:  b8 8f          xor A, $8f                               cycles=1
0x63f2:  b7 8f          ld $8f,A                                 cycles=1
0x63f4:  ae 63 fa       ldw X, #$63fa                            cycles=2
0x63f7:  cc 61 c5       jp $61c5                                 cycles=1
0x63fa:  b7 87          ld $87,A                                 cycles=1
0x63fc:  b7 8c          ld $8c,A                                 cycles=1
0x63fe:  b8 8f          xor A, $8f                               cycles=1
0x6400:  b7 8f          ld $8f,A                                 cycles=1
0x6402:  ae 64 08       ldw X, #$6408                            cycles=2
0x6405:  cc 61 c5       jp $61c5                                 cycles=1
0x6408:  b7 89          ld $89,A                                 cycles=1
0x640a:  b8 8f          xor A, $8f                               cycles=1
0x640c:  27 03          jreq $6411  (offset=3)                   cycles=1-2
0x640e:  cc 62 1a       jp $621a                                 cycles=1
0x6411:  3f 94          clr $94                                  cycles=1
0x6413:  4f             clr A                                    cycles=1
0x6414:  c7 50 5b       ld $505b,A                               cycles=1
0x6417:  43             cpl A                                    cycles=1
0x6418:  c7 50 5c       ld $505c,A                               cycles=1
0x641b:  b6 84          ld A, $84                                cycles=1
0x641d:  26 5b          jrne $647a  (offset=91)                  cycles=1-2
0x641f:  be 85          ldw X, $85                               cycles=2
0x6421:  a3 01 00       cpw X, #$100                             cycles=2
0x6424:  24 54          jrnc $647a  (offset=84)                  cycles=1-2
0x6426:  b6 85          ld A, $85                                cycles=1
0x6428:  27 06          jreq $6430  (offset=6)                   cycles=1-2
0x642a:  72 1a 00 8e    bset $8e, #5                             cycles=1
0x642e:  20 56          jra $6486  (offset=86)                   cycles=2
0x6430:  be 86          ldw X, $86                               cycles=2
0x6432:  a3 80 00       cpw X, #$8000                            cycles=2
0x6435:  25 06          jrc $643d  (offset=6)                    cycles=1-2
0x6437:  72 1a 00 8e    bset $8e, #5                             cycles=1
0x643b:  20 49          jra $6486  (offset=73)                   cycles=2
0x643d:  a3 58 00       cpw X, #$5800                            cycles=2
0x6440:  24 38          jrnc $647a  (offset=56)                  cycles=1-2
0x6442:  a3 50 00       cpw X, #$5000                            cycles=2
0x6445:  25 06          jrc $644d  (offset=6)                    cycles=1-2
0x6447:  72 1b 00 8e    bres $8e, #5                             cycles=1
0x644b:  20 39          jra $6486  (offset=57)                   cycles=2
0x644d:  a3 49 00       cpw X, #$4900                            cycles=2
0x6450:  24 28          jrnc $647a  (offset=40)                  cycles=1-2
0x6452:  a3 48 00       cpw X, #$4800                            cycles=2
0x6455:  25 13          jrc $646a  (offset=19)                   cycles=1-2
0x6457:  72 1a 00 8e    bset $8e, #5                             cycles=1
0x645b:  35 01 00 94    mov $94, #$01                            cycles=1
0x645f:  a6 80          ld A, #$80                               cycles=1
0x6461:  c7 50 5b       ld $505b,A                               cycles=1
0x6464:  43             cpl A                                    cycles=1
0x6465:  c7 50 5c       ld $505c,A                               cycles=1
0x6468:  20 1c          jra $6486  (offset=28)                   cycles=2
0x646a:  a3 44 00       cpw X, #$4400                            cycles=2
0x646d:  24 0b          jrnc $647a  (offset=11)                  cycles=1-2
0x646f:  a3 40 00       cpw X, #$4000                            cycles=2
0x6472:  25 09          jrc $647d  (offset=9)                    cycles=1-2
0x6474:  72 1a 00 8e    bset $8e, #5                             cycles=1
0x6478:  20 0c          jra $6486  (offset=12)                   cycles=2
0x647a:  cc 62 1a       jp $621a                                 cycles=1
0x647d:  a3 08 00       cpw X, #$800                             cycles=2
0x6480:  24 f8          jrnc $647a  (offset=-8)                  cycles=1-2
0x6482:  72 1b 00 8e    bres $8e, #5                             cycles=1
0x6486:  a6 79          ld A, #$79                               cycles=1
0x6488:  cd 60 b1       call $60b1                               cycles=4
0x648b:  b6 82          ld A, $82                                cycles=1
0x648d:  a1 31          cp A, #$31                               cycles=1
0x648f:  27 07          jreq $6498  (offset=7)                   cycles=1-2
0x6491:  a1 11          cp A, #$11                               cycles=1
0x6493:  27 0b          jreq $64a0  (offset=11)                  cycles=1-2
0x6495:  cc 63 34       jp $6334                                 cycles=1
0x6498:  ae 63 4c       ldw X, #$634c                            cycles=2
0x649b:  3f 8f          clr $8f                                  cycles=1
0x649d:  cc 61 c5       jp $61c5                                 cycles=1
0x64a0:  ae 62 5d       ldw X, #$625d                            cycles=2
0x64a3:  3f 8f          clr $8f                                  cycles=1
0x64a5:  cc 61 c5       jp $61c5                                 cycles=1
0x64a8:  81             ret                                      cycles=4
0x64a9:  5f             clrw X                                   cycles=1
0x64aa:  cd 60 6d       call $606d                               cycles=4
0x64ad:  e6 00          ld A, ($00,X)                            cycles=1
0x64af:  92 a7 00 8a    ldf ([$8a.e],X),A                        cycles=4
0x64b3:  9f             ld A, XL                                 cycles=1
0x64b4:  b1 88          cp A, $88                                cycles=1
0x64b6:  27 03          jreq $64bb  (offset=3)                   cycles=1-2
0x64b8:  5c             incw X                                   cycles=1
0x64b9:  20 ef          jra $64aa  (offset=-17)                  cycles=2
0x64bb:  81             ret                                      cycles=4
0x64bc:  5f             clrw X                                   cycles=1
0x64bd:  b6 88          ld A, $88                                cycles=1
0x64bf:  b7 8f          ld $8f,A                                 cycles=1
0x64c1:  cd 60 6d       call $606d                               cycles=4
0x64c4:  92 af 00 8a    ldf A, ([$8a.e],X)                       cycles=4
0x64c8:  b8 8f          xor A, $8f                               cycles=1
0x64ca:  b7 8f          ld $8f,A                                 cycles=1
0x64cc:  9f             ld A, XL                                 cycles=1
0x64cd:  b1 88          cp A, $88                                cycles=1
0x64cf:  27 03          jreq $64d4  (offset=3)                   cycles=1-2
0x64d1:  5c             incw X                                   cycles=1
0x64d2:  20 ed          jra $64c1  (offset=-19)                  cycles=2
0x64d4:  b6 89          ld A, $89                                cycles=1
0x64d6:  b1 8f          cp A, $8f                                cycles=1
0x64d8:  26 06          jrne $64e0  (offset=6)                   cycles=1-2
0x64da:  72 1e 00 8e    bset $8e, #7                             cycles=1
0x64de:  20 04          jra $64e4  (offset=4)                    cycles=2
0x64e0:  72 1f 00 8e    bres $8e, #7                             cycles=1
0x64e4:  81             ret                                      cycles=4
0x64e5:  71             ???                                      cycles=?
0x64e6:  71             ???                                      cycles=?
0x64e7:  71             ???                                      cycles=?
0x64e8:  71             ???                                      cycles=?
0x64e9:  71             ???                                      cycles=?
0x64ea:  71             ???                                      cycles=?
0x64eb:  71             ???                                      cycles=?
0x64ec:  71             ???                                      cycles=?
0x64ed:  71             ???                                      cycles=?
0x64ee:  71             ???                                      cycles=?
0x64ef:  71             ???                                      cycles=?
0x64f0:  71             ???                                      cycles=?
0x64f1:  71             ???                                      cycles=?
0x64f2:  71             ???                                      cycles=?
0x64f3:  71             ???                                      cycles=?
0x64f4:  71             ???                                      cycles=?
0x64f5:  71             ???                                      cycles=?
0x64f6:  71             ???                                      cycles=?
0x64f7:  71             ???                                      cycles=?
0x64f8:  71             ???                                      cycles=?
0x64f9:  71             ???                                      cycles=?
0x64fa:  71             ???                                      cycles=?
0x64fb:  71             ???                                      cycles=?
0x64fc:  71             ???                                      cycles=?
0x64fd:  71             ???                                      cycles=?
0x64fe:  71             ???                                      cycles=?
0x64ff:  71             ???                                      cycles=?
0x6500:  71             ???                                      cycles=?
0x6501:  71             ???                                      cycles=?
0x6502:  71             ???                                      cycles=?
0x6503:  71             ???                                      cycles=?
0x6504:  71             ???                                      cycles=?
0x6505:  71             ???                                      cycles=?
0x6506:  71             ???                                      cycles=?
0x6507:  71             ???                                      cycles=?
0x6508:  71             ???                                      cycles=?
0x6509:  71             ???                                      cycles=?
0x650a:  71             ???                                      cycles=?
0x650b:  71             ???                                      cycles=?
0x650c:  71             ???                                      cycles=?
0x650d:  71             ???                                      cycles=?
0x650e:  71             ???                                      cycles=?
0x650f:  71             ???                                      cycles=?
0x6510:  71             ???                                      cycles=?
0x6511:  71             ???                                      cycles=?
0x6512:  71             ???                                      cycles=?
0x6513:  71             ???                                      cycles=?
0x6514:  71             ???                                      cycles=?
0x6515:  71             ???                                      cycles=?
0x6516:  71             ???                                      cycles=?
0x6517:  71             ???                                      cycles=?
0x6518:  71             ???                                      cycles=?
0x6519:  71             ???                                      cycles=?
0x651a:  71             ???                                      cycles=?
0x651b:  71             ???                                      cycles=?
0x651c:  71             ???                                      cycles=?
0x651d:  71             ???                                      cycles=?
0x651e:  71             ???                                      cycles=?
0x651f:  71             ???                                      cycles=?
0x6520:  71             ???                                      cycles=?
0x6521:  71             ???                                      cycles=?
0x6522:  71             ???                                      cycles=?
0x6523:  71             ???                                      cycles=?
0x6524:  71             ???                                      cycles=?
0x6525:  71             ???                                      cycles=?
0x6526:  71             ???                                      cycles=?
0x6527:  71             ???                                      cycles=?
0x6528:  71             ???                                      cycles=?
0x6529:  71             ???                                      cycles=?
0x652a:  71             ???                                      cycles=?
0x652b:  71             ???                                      cycles=?
0x652c:  71             ???                                      cycles=?
0x652d:  71             ???                                      cycles=?
0x652e:  71             ???                                      cycles=?
0x652f:  71             ???                                      cycles=?
0x6530:  71             ???                                      cycles=?
0x6531:  71             ???                                      cycles=?
0x6532:  71             ???                                      cycles=?
0x6533:  71             ???                                      cycles=?
0x6534:  71             ???                                      cycles=?
0x6535:  71             ???                                      cycles=?
0x6536:  71             ???                                      cycles=?
0x6537:  71             ???                                      cycles=?
0x6538:  71             ???                                      cycles=?
0x6539:  71             ???                                      cycles=?
0x653a:  71             ???                                      cycles=?
0x653b:  71             ???                                      cycles=?
0x653c:  71             ???                                      cycles=?
0x653d:  71             ???                                      cycles=?
0x653e:  71             ???                                      cycles=?
0x653f:  71             ???                                      cycles=?
0x6540:  71             ???                                      cycles=?
0x6541:  71             ???                                      cycles=?
0x6542:  71             ???                                      cycles=?
0x6543:  71             ???                                      cycles=?
0x6544:  71             ???                                      cycles=?
0x6545:  71             ???                                      cycles=?
0x6546:  71             ???                                      cycles=?
0x6547:  71             ???                                      cycles=?
0x6548:  71             ???                                      cycles=?
0x6549:  71             ???                                      cycles=?
0x654a:  71             ???                                      cycles=?
0x654b:  71             ???                                      cycles=?
0x654c:  71             ???                                      cycles=?
0x654d:  71             ???                                      cycles=?
0x654e:  71             ???                                      cycles=?
0x654f:  71             ???                                      cycles=?
0x6550:  71             ???                                      cycles=?
0x6551:  71             ???                                      cycles=?
0x6552:  71             ???                                      cycles=?
0x6553:  71             ???                                      cycles=?
0x6554:  71             ???                                      cycles=?
0x6555:  71             ???                                      cycles=?
0x6556:  71             ???                                      cycles=?
0x6557:  71             ???                                      cycles=?
0x6558:  71             ???                                      cycles=?
0x6559:  71             ???                                      cycles=?
0x655a:  71             ???                                      cycles=?
0x655b:  71             ???                                      cycles=?
0x655c:  71             ???                                      cycles=?
0x655d:  71             ???                                      cycles=?
0x655e:  71             ???                                      cycles=?
0x655f:  71             ???                                      cycles=?
0x6560:  71             ???                                      cycles=?
0x6561:  71             ???                                      cycles=?
0x6562:  71             ???                                      cycles=?
0x6563:  71             ???                                      cycles=?
0x6564:  71             ???                                      cycles=?
0x6565:  71             ???                                      cycles=?
0x6566:  71             ???                                      cycles=?
0x6567:  71             ???                                      cycles=?
0x6568:  71             ???                                      cycles=?
0x6569:  71             ???                                      cycles=?
0x656a:  71             ???                                      cycles=?
0x656b:  71             ???                                      cycles=?
0x656c:  71             ???                                      cycles=?
0x656d:  71             ???                                      cycles=?
0x656e:  71             ???                                      cycles=?
0x656f:  71             ???                                      cycles=?
0x6570:  71             ???                                      cycles=?
0x6571:  71             ???                                      cycles=?
0x6572:  71             ???                                      cycles=?
0x6573:  71             ???                                      cycles=?
0x6574:  71             ???                                      cycles=?
0x6575:  71             ???                                      cycles=?
0x6576:  71             ???                                      cycles=?
0x6577:  71             ???                                      cycles=?
0x6578:  71             ???                                      cycles=?
0x6579:  71             ???                                      cycles=?
0x657a:  71             ???                                      cycles=?
0x657b:  71             ???                                      cycles=?
0x657c:  71             ???                                      cycles=?
0x657d:  71             ???                                      cycles=?
0x657e:  71             ???                                      cycles=?
0x657f:  71             ???                                      cycles=?
0x6580:  71             ???                                      cycles=?
0x6581:  71             ???                                      cycles=?
0x6582:  71             ???                                      cycles=?
0x6583:  71             ???                                      cycles=?
0x6584:  71             ???                                      cycles=?
0x6585:  71             ???                                      cycles=?
0x6586:  71             ???                                      cycles=?
0x6587:  71             ???                                      cycles=?
0x6588:  71             ???                                      cycles=?
0x6589:  71             ???                                      cycles=?
0x658a:  71             ???                                      cycles=?
0x658b:  71             ???                                      cycles=?
0x658c:  71             ???                                      cycles=?
0x658d:  71             ???                                      cycles=?
0x658e:  71             ???                                      cycles=?
0x658f:  71             ???                                      cycles=?
0x6590:  71             ???                                      cycles=?
0x6591:  71             ???                                      cycles=?
0x6592:  71             ???                                      cycles=?
0x6593:  71             ???                                      cycles=?
0x6594:  71             ???                                      cycles=?
0x6595:  71             ???                                      cycles=?
0x6596:  71             ???                                      cycles=?
0x6597:  71             ???                                      cycles=?
0x6598:  71             ???                                      cycles=?
0x6599:  71             ???                                      cycles=?
0x659a:  71             ???                                      cycles=?
0x659b:  71             ???                                      cycles=?
0x659c:  71             ???                                      cycles=?
0x659d:  71             ???                                      cycles=?
0x659e:  71             ???                                      cycles=?
0x659f:  71             ???                                      cycles=?
0x65a0:  71             ???                                      cycles=?
0x65a1:  71             ???                                      cycles=?
0x65a2:  71             ???                                      cycles=?
0x65a3:  71             ???                                      cycles=?
0x65a4:  71             ???                                      cycles=?
0x65a5:  71             ???                                      cycles=?
0x65a6:  71             ???                                      cycles=?
0x65a7:  71             ???                                      cycles=?
0x65a8:  71             ???                                      cycles=?
0x65a9:  71             ???                                      cycles=?
0x65aa:  71             ???                                      cycles=?
0x65ab:  71             ???                                      cycles=?
0x65ac:  71             ???                                      cycles=?
0x65ad:  71             ???                                      cycles=?
0x65ae:  71             ???                                      cycles=?
0x65af:  71             ???                                      cycles=?
0x65b0:  71             ???                                      cycles=?
0x65b1:  71             ???                                      cycles=?
0x65b2:  71             ???                                      cycles=?
0x65b3:  71             ???                                      cycles=?
0x65b4:  71             ???                                      cycles=?
0x65b5:  71             ???                                      cycles=?
0x65b6:  71             ???                                      cycles=?
0x65b7:  71             ???                                      cycles=?
0x65b8:  71             ???                                      cycles=?
0x65b9:  71             ???                                      cycles=?
0x65ba:  71             ???                                      cycles=?
0x65bb:  71             ???                                      cycles=?
0x65bc:  71             ???                                      cycles=?
0x65bd:  71             ???                                      cycles=?
0x65be:  71             ???                                      cycles=?
0x65bf:  71             ???                                      cycles=?
0x65c0:  71             ???                                      cycles=?
0x65c1:  71             ???                                      cycles=?
0x65c2:  71             ???                                      cycles=?
0x65c3:  71             ???                                      cycles=?
0x65c4:  71             ???                                      cycles=?
0x65c5:  71             ???                                      cycles=?
0x65c6:  71             ???                                      cycles=?
0x65c7:  71             ???                                      cycles=?
0x65c8:  71             ???                                      cycles=?
0x65c9:  71             ???                                      cycles=?
0x65ca:  71             ???                                      cycles=?
0x65cb:  71             ???                                      cycles=?
0x65cc:  71             ???                                      cycles=?
0x65cd:  71             ???                                      cycles=?
0x65ce:  71             ???                                      cycles=?
0x65cf:  71             ???                                      cycles=?
0x65d0:  71             ???                                      cycles=?
0x65d1:  71             ???                                      cycles=?
0x65d2:  71             ???                                      cycles=?
0x65d3:  71             ???                                      cycles=?
0x65d4:  71             ???                                      cycles=?
0x65d5:  71             ???                                      cycles=?
0x65d6:  71             ???                                      cycles=?
0x65d7:  71             ???                                      cycles=?
0x65d8:  71             ???                                      cycles=?
0x65d9:  71             ???                                      cycles=?
0x65da:  71             ???                                      cycles=?
0x65db:  71             ???                                      cycles=?
0x65dc:  71             ???                                      cycles=?
0x65dd:  71             ???                                      cycles=?
0x65de:  71             ???                                      cycles=?
0x65df:  71             ???                                      cycles=?
0x65e0:  71             ???                                      cycles=?
0x65e1:  71             ???                                      cycles=?
0x65e2:  71             ???                                      cycles=?
0x65e3:  71             ???                                      cycles=?
0x65e4:  71             ???                                      cycles=?
0x65e5:  71             ???                                      cycles=?
0x65e6:  71             ???                                      cycles=?
0x65e7:  71             ???                                      cycles=?
0x65e8:  71             ???                                      cycles=?
0x65e9:  71             ???                                      cycles=?
0x65ea:  71             ???                                      cycles=?
0x65eb:  71             ???                                      cycles=?
0x65ec:  71             ???                                      cycles=?
0x65ed:  71             ???                                      cycles=?
0x65ee:  71             ???                                      cycles=?
0x65ef:  71             ???                                      cycles=?
0x65f0:  71             ???                                      cycles=?
0x65f1:  71             ???                                      cycles=?
0x65f2:  71             ???                                      cycles=?
0x65f3:  71             ???                                      cycles=?
0x65f4:  71             ???                                      cycles=?
0x65f5:  71             ???                                      cycles=?
0x65f6:  71             ???                                      cycles=?
0x65f7:  71             ???                                      cycles=?
0x65f8:  71             ???                                      cycles=?
0x65f9:  71             ???                                      cycles=?
0x65fa:  71             ???                                      cycles=?
0x65fb:  71             ???                                      cycles=?
0x65fc:  71             ???                                      cycles=?
0x65fd:  71             ???                                      cycles=?
0x65fe:  71             ???                                      cycles=?
0x65ff:  71             ???                                      cycles=?
0x6600:  71             ???                                      cycles=?
0x6601:  71             ???                                      cycles=?
0x6602:  71             ???                                      cycles=?
0x6603:  71             ???                                      cycles=?
0x6604:  71             ???                                      cycles=?
0x6605:  71             ???                                      cycles=?
0x6606:  71             ???                                      cycles=?
0x6607:  71             ???                                      cycles=?
0x6608:  71             ???                                      cycles=?
0x6609:  71             ???                                      cycles=?
0x660a:  71             ???                                      cycles=?
0x660b:  71             ???                                      cycles=?
0x660c:  71             ???                                      cycles=?
0x660d:  71             ???                                      cycles=?
0x660e:  71             ???                                      cycles=?
0x660f:  71             ???                                      cycles=?
0x6610:  71             ???                                      cycles=?
0x6611:  71             ???                                      cycles=?
0x6612:  71             ???                                      cycles=?
0x6613:  71             ???                                      cycles=?
0x6614:  71             ???                                      cycles=?
0x6615:  71             ???                                      cycles=?
0x6616:  71             ???                                      cycles=?
0x6617:  71             ???                                      cycles=?
0x6618:  71             ???                                      cycles=?
0x6619:  71             ???                                      cycles=?
0x661a:  71             ???                                      cycles=?
0x661b:  71             ???                                      cycles=?
0x661c:  71             ???                                      cycles=?
0x661d:  71             ???                                      cycles=?
0x661e:  71             ???                                      cycles=?
0x661f:  71             ???                                      cycles=?
0x6620:  71             ???                                      cycles=?
0x6621:  71             ???                                      cycles=?
0x6622:  71             ???                                      cycles=?
0x6623:  71             ???                                      cycles=?
0x6624:  71             ???                                      cycles=?
0x6625:  71             ???                                      cycles=?
0x6626:  71             ???                                      cycles=?
0x6627:  71             ???                                      cycles=?
0x6628:  71             ???                                      cycles=?
0x6629:  71             ???                                      cycles=?
0x662a:  71             ???                                      cycles=?
0x662b:  71             ???                                      cycles=?
0x662c:  71             ???                                      cycles=?
0x662d:  71             ???                                      cycles=?
0x662e:  71             ???                                      cycles=?
0x662f:  71             ???                                      cycles=?
0x6630:  71             ???                                      cycles=?
0x6631:  71             ???                                      cycles=?
0x6632:  71             ???                                      cycles=?
0x6633:  71             ???                                      cycles=?
0x6634:  71             ???                                      cycles=?
0x6635:  71             ???                                      cycles=?
0x6636:  71             ???                                      cycles=?
0x6637:  71             ???                                      cycles=?
0x6638:  71             ???                                      cycles=?
0x6639:  71             ???                                      cycles=?
0x663a:  71             ???                                      cycles=?
0x663b:  71             ???                                      cycles=?
0x663c:  71             ???                                      cycles=?
0x663d:  71             ???                                      cycles=?
0x663e:  71             ???                                      cycles=?
0x663f:  71             ???                                      cycles=?
0x6640:  71             ???                                      cycles=?
0x6641:  71             ???                                      cycles=?
0x6642:  71             ???                                      cycles=?
0x6643:  71             ???                                      cycles=?
0x6644:  71             ???                                      cycles=?
0x6645:  71             ???                                      cycles=?
0x6646:  71             ???                                      cycles=?
0x6647:  71             ???                                      cycles=?
0x6648:  71             ???                                      cycles=?
0x6649:  71             ???                                      cycles=?
0x664a:  71             ???                                      cycles=?
0x664b:  71             ???                                      cycles=?
0x664c:  71             ???                                      cycles=?
0x664d:  71             ???                                      cycles=?
0x664e:  71             ???                                      cycles=?
0x664f:  71             ???                                      cycles=?
0x6650:  71             ???                                      cycles=?
0x6651:  71             ???                                      cycles=?
0x6652:  71             ???                                      cycles=?
0x6653:  71             ???                                      cycles=?
0x6654:  71             ???                                      cycles=?
0x6655:  71             ???                                      cycles=?
0x6656:  71             ???                                      cycles=?
0x6657:  71             ???                                      cycles=?
0x6658:  71             ???                                      cycles=?
0x6659:  71             ???                                      cycles=?
0x665a:  71             ???                                      cycles=?
0x665b:  71             ???                                      cycles=?
0x665c:  71             ???                                      cycles=?
0x665d:  71             ???                                      cycles=?
0x665e:  71             ???                                      cycles=?
0x665f:  71             ???                                      cycles=?
0x6660:  71             ???                                      cycles=?
0x6661:  71             ???                                      cycles=?
0x6662:  71             ???                                      cycles=?
0x6663:  71             ???                                      cycles=?
0x6664:  71             ???                                      cycles=?
0x6665:  71             ???                                      cycles=?
0x6666:  71             ???                                      cycles=?
0x6667:  71             ???                                      cycles=?
0x6668:  71             ???                                      cycles=?
0x6669:  71             ???                                      cycles=?
0x666a:  71             ???                                      cycles=?
0x666b:  71             ???                                      cycles=?
0x666c:  71             ???                                      cycles=?
0x666d:  71             ???                                      cycles=?
0x666e:  71             ???                                      cycles=?
0x666f:  71             ???                                      cycles=?
0x6670:  71             ???                                      cycles=?
0x6671:  71             ???                                      cycles=?
0x6672:  71             ???                                      cycles=?
0x6673:  71             ???                                      cycles=?
0x6674:  71             ???                                      cycles=?
0x6675:  71             ???                                      cycles=?
0x6676:  71             ???                                      cycles=?
0x6677:  71             ???                                      cycles=?
0x6678:  71             ???                                      cycles=?
0x6679:  71             ???                                      cycles=?
0x667a:  71             ???                                      cycles=?
0x667b:  71             ???                                      cycles=?
0x667c:  71             ???                                      cycles=?
0x667d:  71             ???                                      cycles=?
0x667e:  71             ???                                      cycles=?
0x667f:  71             ???                                      cycles=?
0x6680:  71             ???                                      cycles=?
0x6681:  71             ???                                      cycles=?
0x6682:  71             ???                                      cycles=?
0x6683:  71             ???                                      cycles=?
0x6684:  71             ???                                      cycles=?
0x6685:  71             ???                                      cycles=?
0x6686:  71             ???                                      cycles=?
0x6687:  71             ???                                      cycles=?
0x6688:  71             ???                                      cycles=?
0x6689:  71             ???                                      cycles=?
0x668a:  71             ???                                      cycles=?
0x668b:  71             ???                                      cycles=?
0x668c:  71             ???                                      cycles=?
0x668d:  71             ???                                      cycles=?
0x668e:  71             ???                                      cycles=?
0x668f:  71             ???                                      cycles=?
0x6690:  71             ???                                      cycles=?
0x6691:  71             ???                                      cycles=?
0x6692:  71             ???                                      cycles=?
0x6693:  71             ???                                      cycles=?
0x6694:  71             ???                                      cycles=?
0x6695:  71             ???                                      cycles=?
0x6696:  71             ???                                      cycles=?
0x6697:  71             ???                                      cycles=?
0x6698:  71             ???                                      cycles=?
0x6699:  71             ???                                      cycles=?
0x669a:  71             ???                                      cycles=?
0x669b:  71             ???                                      cycles=?
0x669c:  71             ???                                      cycles=?
0x669d:  71             ???                                      cycles=?
0x669e:  71             ???                                      cycles=?
0x669f:  71             ???                                      cycles=?
0x66a0:  71             ???                                      cycles=?
0x66a1:  71             ???                                      cycles=?
0x66a2:  71             ???                                      cycles=?
0x66a3:  71             ???                                      cycles=?
0x66a4:  71             ???                                      cycles=?
0x66a5:  71             ???                                      cycles=?
0x66a6:  71             ???                                      cycles=?
0x66a7:  71             ???                                      cycles=?
0x66a8:  71             ???                                      cycles=?
0x66a9:  71             ???                                      cycles=?
0x66aa:  71             ???                                      cycles=?
0x66ab:  71             ???                                      cycles=?
0x66ac:  71             ???                                      cycles=?
0x66ad:  71             ???                                      cycles=?
0x66ae:  71             ???                                      cycles=?
0x66af:  71             ???                                      cycles=?
0x66b0:  71             ???                                      cycles=?
0x66b1:  71             ???                                      cycles=?
0x66b2:  71             ???                                      cycles=?
0x66b3:  71             ???                                      cycles=?
0x66b4:  71             ???                                      cycles=?
0x66b5:  71             ???                                      cycles=?
0x66b6:  71             ???                                      cycles=?
0x66b7:  71             ???                                      cycles=?
0x66b8:  71             ???                                      cycles=?
0x66b9:  71             ???                                      cycles=?
0x66ba:  71             ???                                      cycles=?
0x66bb:  71             ???                                      cycles=?
0x66bc:  71             ???                                      cycles=?
0x66bd:  71             ???                                      cycles=?
0x66be:  71             ???                                      cycles=?
0x66bf:  71             ???                                      cycles=?
0x66c0:  71             ???                                      cycles=?
0x66c1:  71             ???                                      cycles=?
0x66c2:  71             ???                                      cycles=?
0x66c3:  71             ???                                      cycles=?
0x66c4:  71             ???                                      cycles=?
0x66c5:  71             ???                                      cycles=?
0x66c6:  71             ???                                      cycles=?
0x66c7:  71             ???                                      cycles=?
0x66c8:  71             ???                                      cycles=?
0x66c9:  71             ???                                      cycles=?
0x66ca:  71             ???                                      cycles=?
0x66cb:  71             ???                                      cycles=?
0x66cc:  71             ???                                      cycles=?
0x66cd:  71             ???                                      cycles=?
0x66ce:  71             ???                                      cycles=?
0x66cf:  71             ???                                      cycles=?
0x66d0:  71             ???                                      cycles=?
0x66d1:  71             ???                                      cycles=?
0x66d2:  71             ???                                      cycles=?
0x66d3:  71             ???                                      cycles=?
0x66d4:  71             ???                                      cycles=?
0x66d5:  71             ???                                      cycles=?
0x66d6:  71             ???                                      cycles=?
0x66d7:  71             ???                                      cycles=?
0x66d8:  71             ???                                      cycles=?
0x66d9:  71             ???                                      cycles=?
0x66da:  71             ???                                      cycles=?
0x66db:  71             ???                                      cycles=?
0x66dc:  71             ???                                      cycles=?
0x66dd:  71             ???                                      cycles=?
0x66de:  71             ???                                      cycles=?
0x66df:  71             ???                                      cycles=?
0x66e0:  71             ???                                      cycles=?
0x66e1:  71             ???                                      cycles=?
0x66e2:  71             ???                                      cycles=?
0x66e3:  71             ???                                      cycles=?
0x66e4:  71             ???                                      cycles=?
0x66e5:  71             ???                                      cycles=?
0x66e6:  71             ???                                      cycles=?
0x66e7:  71             ???                                      cycles=?
0x66e8:  71             ???                                      cycles=?
0x66e9:  71             ???                                      cycles=?
0x66ea:  71             ???                                      cycles=?
0x66eb:  71             ???                                      cycles=?
0x66ec:  71             ???                                      cycles=?
0x66ed:  71             ???                                      cycles=?
0x66ee:  71             ???                                      cycles=?
0x66ef:  71             ???                                      cycles=?
0x66f0:  71             ???                                      cycles=?
0x66f1:  71             ???                                      cycles=?
0x66f2:  71             ???                                      cycles=?
0x66f3:  71             ???                                      cycles=?
0x66f4:  71             ???                                      cycles=?
0x66f5:  71             ???                                      cycles=?
0x66f6:  71             ???                                      cycles=?
0x66f7:  71             ???                                      cycles=?
0x66f8:  71             ???                                      cycles=?
0x66f9:  71             ???                                      cycles=?
0x66fa:  71             ???                                      cycles=?
0x66fb:  71             ???                                      cycles=?
0x66fc:  71             ???                                      cycles=?
0x66fd:  71             ???                                      cycles=?
0x66fe:  71             ???                                      cycles=?
0x66ff:  71             ???                                      cycles=?
0x6700:  71             ???                                      cycles=?
0x6701:  71             ???                                      cycles=?
0x6702:  71             ???                                      cycles=?
0x6703:  71             ???                                      cycles=?
0x6704:  71             ???                                      cycles=?
0x6705:  71             ???                                      cycles=?
0x6706:  71             ???                                      cycles=?
0x6707:  71             ???                                      cycles=?
0x6708:  71             ???                                      cycles=?
0x6709:  71             ???                                      cycles=?
0x670a:  71             ???                                      cycles=?
0x670b:  71             ???                                      cycles=?
0x670c:  71             ???                                      cycles=?
0x670d:  71             ???                                      cycles=?
0x670e:  71             ???                                      cycles=?
0x670f:  71             ???                                      cycles=?
0x6710:  71             ???                                      cycles=?
0x6711:  71             ???                                      cycles=?
0x6712:  71             ???                                      cycles=?
0x6713:  71             ???                                      cycles=?
0x6714:  71             ???                                      cycles=?
0x6715:  71             ???                                      cycles=?
0x6716:  71             ???                                      cycles=?
0x6717:  71             ???                                      cycles=?
0x6718:  71             ???                                      cycles=?
0x6719:  71             ???                                      cycles=?
0x671a:  71             ???                                      cycles=?
0x671b:  71             ???                                      cycles=?
0x671c:  71             ???                                      cycles=?
0x671d:  71             ???                                      cycles=?
0x671e:  71             ???                                      cycles=?
0x671f:  71             ???                                      cycles=?
0x6720:  71             ???                                      cycles=?
0x6721:  71             ???                                      cycles=?
0x6722:  71             ???                                      cycles=?
0x6723:  71             ???                                      cycles=?
0x6724:  71             ???                                      cycles=?
0x6725:  71             ???                                      cycles=?
0x6726:  71             ???                                      cycles=?
0x6727:  71             ???                                      cycles=?
0x6728:  71             ???                                      cycles=?
0x6729:  71             ???                                      cycles=?
0x672a:  71             ???                                      cycles=?
0x672b:  71             ???                                      cycles=?
0x672c:  71             ???                                      cycles=?
0x672d:  71             ???                                      cycles=?
0x672e:  71             ???                                      cycles=?
0x672f:  71             ???                                      cycles=?
0x6730:  71             ???                                      cycles=?
0x6731:  71             ???                                      cycles=?
0x6732:  71             ???                                      cycles=?
0x6733:  71             ???                                      cycles=?
0x6734:  71             ???                                      cycles=?
0x6735:  71             ???                                      cycles=?
0x6736:  71             ???                                      cycles=?
0x6737:  71             ???                                      cycles=?
0x6738:  71             ???                                      cycles=?
0x6739:  71             ???                                      cycles=?
0x673a:  71             ???                                      cycles=?
0x673b:  71             ???                                      cycles=?
0x673c:  71             ???                                      cycles=?
0x673d:  71             ???                                      cycles=?
0x673e:  71             ???                                      cycles=?
0x673f:  71             ???                                      cycles=?
0x6740:  71             ???                                      cycles=?
0x6741:  71             ???                                      cycles=?
0x6742:  71             ???                                      cycles=?
0x6743:  71             ???                                      cycles=?
0x6744:  71             ???                                      cycles=?
0x6745:  71             ???                                      cycles=?
0x6746:  71             ???                                      cycles=?
0x6747:  71             ???                                      cycles=?
0x6748:  71             ???                                      cycles=?
0x6749:  71             ???                                      cycles=?
0x674a:  71             ???                                      cycles=?
0x674b:  71             ???                                      cycles=?
0x674c:  71             ???                                      cycles=?
0x674d:  71             ???                                      cycles=?
0x674e:  71             ???                                      cycles=?
0x674f:  71             ???                                      cycles=?
0x6750:  71             ???                                      cycles=?
0x6751:  71             ???                                      cycles=?
0x6752:  71             ???                                      cycles=?
0x6753:  71             ???                                      cycles=?
0x6754:  71             ???                                      cycles=?
0x6755:  71             ???                                      cycles=?
0x6756:  71             ???                                      cycles=?
0x6757:  71             ???                                      cycles=?
0x6758:  71             ???                                      cycles=?
0x6759:  71             ???                                      cycles=?
0x675a:  71             ???                                      cycles=?
0x675b:  71             ???                                      cycles=?
0x675c:  71             ???                                      cycles=?
0x675d:  71             ???                                      cycles=?
0x675e:  71             ???                                      cycles=?
0x675f:  71             ???                                      cycles=?
0x6760:  71             ???                                      cycles=?
0x6761:  71             ???                                      cycles=?
0x6762:  71             ???                                      cycles=?
0x6763:  71             ???                                      cycles=?
0x6764:  71             ???                                      cycles=?
0x6765:  71             ???                                      cycles=?
0x6766:  71             ???                                      cycles=?
0x6767:  71             ???                                      cycles=?
0x6768:  71             ???                                      cycles=?
0x6769:  71             ???                                      cycles=?
0x676a:  71             ???                                      cycles=?
0x676b:  71             ???                                      cycles=?
0x676c:  71             ???                                      cycles=?
0x676d:  71             ???                                      cycles=?
0x676e:  71             ???                                      cycles=?
0x676f:  71             ???                                      cycles=?
0x6770:  71             ???                                      cycles=?
0x6771:  71             ???                                      cycles=?
0x6772:  71             ???                                      cycles=?
0x6773:  71             ???                                      cycles=?
0x6774:  71             ???                                      cycles=?
0x6775:  71             ???                                      cycles=?
0x6776:  71             ???                                      cycles=?
0x6777:  71             ???                                      cycles=?
0x6778:  71             ???                                      cycles=?
0x6779:  71             ???                                      cycles=?
0x677a:  71             ???                                      cycles=?
0x677b:  71             ???                                      cycles=?
0x677c:  71             ???                                      cycles=?
0x677d:  71             ???                                      cycles=?
0x677e:  71             ???                                      cycles=?
0x677f:  71             ???                                      cycles=?
0x6780:  71             ???                                      cycles=?
0x6781:  71             ???                                      cycles=?
0x6782:  71             ???                                      cycles=?
0x6783:  71             ???                                      cycles=?
0x6784:  71             ???                                      cycles=?
0x6785:  71             ???                                      cycles=?
0x6786:  71             ???                                      cycles=?
0x6787:  71             ???                                      cycles=?
0x6788:  71             ???                                      cycles=?
0x6789:  71             ???                                      cycles=?
0x678a:  71             ???                                      cycles=?
0x678b:  71             ???                                      cycles=?
0x678c:  71             ???                                      cycles=?
0x678d:  71             ???                                      cycles=?
0x678e:  71             ???                                      cycles=?
0x678f:  71             ???                                      cycles=?
0x6790:  71             ???                                      cycles=?
0x6791:  71             ???                                      cycles=?
0x6792:  71             ???                                      cycles=?
0x6793:  71             ???                                      cycles=?
0x6794:  71             ???                                      cycles=?
0x6795:  71             ???                                      cycles=?
0x6796:  71             ???                                      cycles=?
0x6797:  71             ???                                      cycles=?
0x6798:  71             ???                                      cycles=?
0x6799:  71             ???                                      cycles=?
0x679a:  71             ???                                      cycles=?
0x679b:  71             ???                                      cycles=?
0x679c:  71             ???                                      cycles=?
0x679d:  71             ???                                      cycles=?
0x679e:  71             ???                                      cycles=?
0x679f:  71             ???                                      cycles=?
0x67a0:  71             ???                                      cycles=?
0x67a1:  71             ???                                      cycles=?
0x67a2:  71             ???                                      cycles=?
0x67a3:  71             ???                                      cycles=?
0x67a4:  71             ???                                      cycles=?
0x67a5:  71             ???                                      cycles=?
0x67a6:  71             ???                                      cycles=?
0x67a7:  71             ???                                      cycles=?
0x67a8:  71             ???                                      cycles=?
0x67a9:  71             ???                                      cycles=?
0x67aa:  71             ???                                      cycles=?
0x67ab:  71             ???                                      cycles=?
0x67ac:  71             ???                                      cycles=?
0x67ad:  71             ???                                      cycles=?
0x67ae:  71             ???                                      cycles=?
0x67af:  71             ???                                      cycles=?
0x67b0:  71             ???                                      cycles=?
0x67b1:  71             ???                                      cycles=?
0x67b2:  71             ???                                      cycles=?
0x67b3:  71             ???                                      cycles=?
0x67b4:  71             ???                                      cycles=?
0x67b5:  71             ???                                      cycles=?
0x67b6:  71             ???                                      cycles=?
0x67b7:  71             ???                                      cycles=?
0x67b8:  71             ???                                      cycles=?
0x67b9:  71             ???                                      cycles=?
0x67ba:  71             ???                                      cycles=?
0x67bb:  71             ???                                      cycles=?
0x67bc:  71             ???                                      cycles=?
0x67bd:  71             ???                                      cycles=?
0x67be:  71             ???                                      cycles=?
0x67bf:  71             ???                                      cycles=?
0x67c0:  71             ???                                      cycles=?
0x67c1:  71             ???                                      cycles=?
0x67c2:  71             ???                                      cycles=?
0x67c3:  71             ???                                      cycles=?
0x67c4:  71             ???                                      cycles=?
0x67c5:  71             ???                                      cycles=?
0x67c6:  71             ???                                      cycles=?
0x67c7:  71             ???                                      cycles=?
0x67c8:  71             ???                                      cycles=?
0x67c9:  71             ???                                      cycles=?
0x67ca:  71             ???                                      cycles=?
0x67cb:  71             ???                                      cycles=?
0x67cc:  71             ???                                      cycles=?
0x67cd:  71             ???                                      cycles=?
0x67ce:  71             ???                                      cycles=?
0x67cf:  71             ???                                      cycles=?
0x67d0:  71             ???                                      cycles=?
0x67d1:  71             ???                                      cycles=?
0x67d2:  71             ???                                      cycles=?
0x67d3:  71             ???                                      cycles=?
0x67d4:  71             ???                                      cycles=?
0x67d5:  71             ???                                      cycles=?
0x67d6:  71             ???                                      cycles=?
0x67d7:  71             ???                                      cycles=?
0x67d8:  71             ???                                      cycles=?
0x67d9:  71             ???                                      cycles=?
0x67da:  71             ???                                      cycles=?
0x67db:  71             ???                                      cycles=?
0x67dc:  71             ???                                      cycles=?
0x67dd:  71             ???                                      cycles=?
0x67de:  71             ???                                      cycles=?
0x67df:  71             ???                                      cycles=?
0x67e0:  71             ???                                      cycles=?
0x67e1:  71             ???                                      cycles=?
0x67e2:  71             ???                                      cycles=?
0x67e3:  71             ???                                      cycles=?
0x67e4:  71             ???                                      cycles=?
0x67e5:  71             ???                                      cycles=?
0x67e6:  71             ???                                      cycles=?
0x67e7:  71             ???                                      cycles=?
0x67e8:  71             ???                                      cycles=?
0x67e9:  71             ???                                      cycles=?
0x67ea:  71             ???                                      cycles=?
0x67eb:  71             ???                                      cycles=?
0x67ec:  71             ???                                      cycles=?
0x67ed:  71             ???                                      cycles=?
0x67ee:  71             ???                                      cycles=?
0x67ef:  71             ???                                      cycles=?
0x67f0:  37 39          sra $39                                  cycles=1
0x67f2:  42             mul X, A                                 cycles=4
0x67f3:  41             exg A, XL                                cycles=1
0x67f4:  43             cpl A                                    cycles=1
0x67f5:  38 30          sll $30                                  cycles=1
0x67f7:  30 33          neg $33                                  cycles=1
0x67f9:  32 30 39       pop $3039                                cycles=1
0x67fc:  a1 a0          cp A, #$a0                               cycles=1
0x67fe:  fd             call (X)                                 cycles=4
0x67ff:  1a 00          or A, ($00,SP)                           cycles=1
